(dp1
S'mpd_renderer_oh'
p2
ccopy_reg
_reconstructor
p3
(ctwisted.plugin
CachedDropin
p4
c__builtin__
object
p5
NtRp6
(dp7
S'moduleName'
p8
S'twisted.plugins.mpd_renderer_oh'
p9
sS'description'
p10
S'\nCreated on 6 janv. 2015\n\n@author: babe\n'
p11
sS'plugins'
p12
(lp13
g3
(ctwisted.plugin
CachedPlugin
p14
g5
NtRp15
(dp16
S'provided'
p17
(lp18
ctwisted.plugin
IPlugin
p19
actwisted.application.service
IServiceMaker
p20
asS'dropin'
p21
g6
sS'name'
p22
S'urenderer'
p23
sg10
S'\n    Utility class to simplify the definition of L{IServiceMaker} plugins.\n    '
p24
sbasbsS'upnp_renderer'
p25
g3
(g4
g5
NtRp26
(dp27
g8
S'twisted.plugins.upnp_renderer'
p28
sg10
Nsg12
(lp29
g3
(g14
g5
NtRp30
(dp31
g17
(lp32
g19
ag20
asg21
g26
sg22
g23
sg10
g24
sbasbsS'mpd_renderer'
p33
g3
(g4
g5
NtRp34
(dp35
g8
S'twisted.plugins.mpd_renderer'
p36
sg10
S'\nCreated on 6 janv. 2015\n\n@author: babe\n'
p37
sg12
(lp38
g3
(g14
g5
NtRp39
(dp40
g17
(lp41
g19
ag20
asg21
g34
sg22
g23
sg10
g24
sbasbsS'onDemand'
p42
g3
(g4
g5
NtRp43
(dp44
g8
S'twisted.plugins.onDemand'
p45
sg10
S'\nCreated on 6 janv. 2015\n\n@author: babe\n'
p46
sg12
(lp47
g3
(g14
g5
NtRp48
(dp49
g17
(lp50
g19
ag20
asg21
g43
sg22
S'urenderer'
p51
sg10
S'\n    Utility class to simplify the definition of L{IServiceMaker} plugins.\n    '
p52
sbasbs.