(dp1
S'mpd_renderer_oh'
p2
ccopy_reg
_reconstructor
p3
(ctwisted.plugin
CachedDropin
p4
c__builtin__
object
p5
Ntp6
Rp7
(dp8
S'plugins'
p9
(lp10
g3
(ctwisted.plugin
CachedPlugin
p11
g5
Ntp12
Rp13
(dp14
S'description'
p15
S'\n    Utility class to simplify the definition of L{IServiceMaker} plugins.\n    '
p16
sS'name'
p17
S'urenderer'
p18
sS'dropin'
p19
g7
sS'provided'
p20
(lp21
ctwisted.plugin
IPlugin
p22
actwisted.application.service
IServiceMaker
p23
asbasg15
S'\nCreated on 6 janv. 2015\n\n@author: babe\n'
p24
sS'moduleName'
p25
S'twisted.plugins.mpd_renderer_oh'
p26
sbsS'upnp_renderer'
p27
g3
(g4
g5
Ntp28
Rp29
(dp30
g9
(lp31
g3
(g11
g5
Ntp32
Rp33
(dp34
g15
g16
sg17
g18
sg19
g29
sg20
(lp35
g22
ag23
asbasg15
Nsg25
S'twisted.plugins.upnp_renderer'
p36
sbsS'mpd_renderer'
p37
g3
(g4
g5
Ntp38
Rp39
(dp40
g9
(lp41
g3
(g11
g5
Ntp42
Rp43
(dp44
g15
g16
sg17
g18
sg19
g39
sg20
(lp45
g22
ag23
asbasg15
S'\nCreated on 6 janv. 2015\n\n@author: babe\n'
p46
sg25
S'twisted.plugins.mpd_renderer'
p47
sbsS'onDemand'
p48
g3
(g4
g5
Ntp49
Rp50
(dp51
g9
(lp52
g3
(g11
g5
Ntp53
Rp54
(dp55
g20
(lp56
g22
ag23
asg15
S'\n    Utility class to simplify the definition of L{IServiceMaker} plugins.\n    '
p57
sg17
S'urenderer'
p58
sg19
g50
sbasg15
S'\nCreated on 6 janv. 2015\n\n@author: babe\n'
p59
sg25
S'twisted.plugins.onDemand'
p60
sbs.